; Function Attrs: mustprogress uwtable
define void @_ZN15VoipCallsDialog11changeEventEP6QEvent(ptr noundef nonnull align 8 dereferenceable(480) %0, ptr noundef %1) unnamed_addr #0 align 2 {
  %.not = icmp eq ptr %1, null
  br i1 %.not, label %9, label %3

3:                                                ; preds = %2
  %4 = getelementptr inbounds i8, ptr %1, i64 8
  %5 = load i16, ptr %4, align 8
  %cond = icmp eq i16 %5, 89
  br i1 %cond, label %6, label %9

6:                                                ; preds = %3
  %7 = getelementptr inbounds i8, ptr %0, i64 136
  %8 = load ptr, ptr %7, align 8
  tail call void @_ZN18Ui_VoipCallsDialog13retranslateUiEP7QDialog(ptr noundef nonnull align 8 dereferenceable(136) %8, ptr noundef nonnull %0)
  br label %9

9:                                                ; preds = %6, %3, %2
  tail call void @_ZN7QWidget11changeEventEP6QEvent(ptr noundef nonnull align 8 dereferenceable(40) %0, ptr noundef %1)
  ret void
}